target datalayout = "e-m:e-p270:32:32-p271:32:32-p272:64:64-i64:64-i128:128-f80:128-n8:16:32:64-S128"
target triple = "x86_64-unknown-linux-gnu"

%struct.grpc_slice = type { ptr, %"union.grpc_slice::grpc_slice_data" }
%"union.grpc_slice::grpc_slice_data" = type { %"struct.grpc_slice::grpc_slice_data::grpc_slice_refcounted", [8 x i8] }
%"struct.grpc_slice::grpc_slice_data::grpc_slice_refcounted" = type { i64, ptr }
%"struct.grpc_slice::grpc_slice_data::grpc_slice_inlined" = type { i8, [23 x i8] }

@grpc_setting_id_to_wire_id = external constant [0 x i16], align 2
@.str = private unnamed_addr constant [145 x i8] c"generated/home/dtcxzyw/WorkSpace/Projects/compilers/llvm-opt-benchmark/bench/grpc/grpc/src/core/ext/transport/chttp2/transport/frame_settings.cc\00", align 1
@.str.1 = private unnamed_addr constant [32 x i8] c"p == GRPC_SLICE_END_PTR(output)\00", align 1

; Function Attrs: mustprogress nounwind uwtable
define internal noundef ptr @_ZL11fill_headerPhjh(ptr noundef %out, i32 noundef %length, i8 noundef zeroext %flags) #6 {
entry:
  %out.addr = alloca ptr, align 8
  %length.addr = alloca i32, align 4
  %flags.addr = alloca i8, align 1
  store ptr %out, ptr %out.addr, align 8
  store i32 %length, ptr %length.addr, align 4
  store i8 %flags, ptr %flags.addr, align 1
  %0 = load i32, ptr %length.addr, align 4
  %shr = lshr i32 %0, 16
  %conv = trunc i32 %shr to i8
  %1 = load ptr, ptr %out.addr, align 8
  %incdec.ptr = getelementptr inbounds i8, ptr %1, i32 1
  store ptr %incdec.ptr, ptr %out.addr, align 8
  store i8 %conv, ptr %1, align 1
  %2 = load i32, ptr %length.addr, align 4
  %shr1 = lshr i32 %2, 8
  %conv2 = trunc i32 %shr1 to i8
  %3 = load ptr, ptr %out.addr, align 8
  %incdec.ptr3 = getelementptr inbounds i8, ptr %3, i32 1
  store ptr %incdec.ptr3, ptr %out.addr, align 8
  store i8 %conv2, ptr %3, align 1
  %4 = load i32, ptr %length.addr, align 4
  %conv4 = trunc i32 %4 to i8
  %5 = load ptr, ptr %out.addr, align 8
  %incdec.ptr5 = getelementptr inbounds i8, ptr %5, i32 1
  store ptr %incdec.ptr5, ptr %out.addr, align 8
  store i8 %conv4, ptr %5, align 1
  %6 = load ptr, ptr %out.addr, align 8
  %incdec.ptr6 = getelementptr inbounds i8, ptr %6, i32 1
  store ptr %incdec.ptr6, ptr %out.addr, align 8
  store i8 4, ptr %6, align 1
  %7 = load i8, ptr %flags.addr, align 1
  %8 = load ptr, ptr %out.addr, align 8
  %incdec.ptr7 = getelementptr inbounds i8, ptr %8, i32 1
  store ptr %incdec.ptr7, ptr %out.addr, align 8
  store i8 %7, ptr %8, align 1
  %9 = load ptr, ptr %out.addr, align 8
  %incdec.ptr8 = getelementptr inbounds i8, ptr %9, i32 1
  store ptr %incdec.ptr8, ptr %out.addr, align 8
  store i8 0, ptr %9, align 1
  %10 = load ptr, ptr %out.addr, align 8
  %incdec.ptr9 = getelementptr inbounds i8, ptr %10, i32 1
  store ptr %incdec.ptr9, ptr %out.addr, align 8
  store i8 0, ptr %10, align 1
  %11 = load ptr, ptr %out.addr, align 8
  %incdec.ptr10 = getelementptr inbounds i8, ptr %11, i32 1
  store ptr %incdec.ptr10, ptr %out.addr, align 8
  store i8 0, ptr %11, align 1
  %12 = load ptr, ptr %out.addr, align 8
  %incdec.ptr11 = getelementptr inbounds i8, ptr %12, i32 1
  store ptr %incdec.ptr11, ptr %out.addr, align 8
  store i8 0, ptr %12, align 1
  %13 = load ptr, ptr %out.addr, align 8
  ret ptr %13
}

; Function Attrs: mustprogress uwtable
define void @_Z27grpc_chttp2_settings_createPjPKjjm(ptr noalias sret(%struct.grpc_slice) align 8 %agg.result, ptr noundef %old_settings, ptr noundef %new_settings, i32 noundef %force_mask, i64 noundef %count) #4 {
entry:
  %old_settings.addr = alloca ptr, align 8
  %new_settings.addr = alloca ptr, align 8
  %force_mask.addr = alloca i32, align 4
  %count.addr = alloca i64, align 8
  %i = alloca i64, align 8
  %n = alloca i32, align 4
  %p = alloca ptr, align 8
  %ref.tmp = alloca %struct.grpc_slice, align 8
  store ptr %old_settings, ptr %old_settings.addr, align 8
  store ptr %new_settings, ptr %new_settings.addr, align 8
  store i32 %force_mask, ptr %force_mask.addr, align 4
  store i64 %count, ptr %count.addr, align 8
  store i32 0, ptr %n, align 4
  store i64 0, ptr %i, align 8
  br label %for.cond

for.cond:                                         ; preds = %for.inc, %entry
  %0 = load i64, ptr %i, align 8
  %1 = load i64, ptr %count.addr, align 8
  %cmp = icmp ult i64 %0, %1
  br i1 %cmp, label %for.body, label %for.end

for.body:                                         ; preds = %for.cond
  %2 = load ptr, ptr %new_settings.addr, align 8
  %3 = load i64, ptr %i, align 8
  %arrayidx = getelementptr inbounds i32, ptr %2, i64 %3
  %4 = load i32, ptr %arrayidx, align 4
  %5 = load ptr, ptr %old_settings.addr, align 8
  %6 = load i64, ptr %i, align 8
  %arrayidx1 = getelementptr inbounds i32, ptr %5, i64 %6
  %7 = load i32, ptr %arrayidx1, align 4
  %cmp2 = icmp ne i32 %4, %7
  br i1 %cmp2, label %lor.end, label %lor.rhs

lor.rhs:                                          ; preds = %for.body
  %8 = load i32, ptr %force_mask.addr, align 4
  %9 = load i64, ptr %i, align 8
  %sh_prom = trunc i64 %9 to i32
  %shl = shl i32 1, %sh_prom
  %and = and i32 %8, %shl
  %cmp3 = icmp ne i32 %and, 0
  br label %lor.end

lor.end:                                          ; preds = %lor.rhs, %for.body
  %10 = phi i1 [ true, %for.body ], [ %cmp3, %lor.rhs ]
  %conv = zext i1 %10 to i32
  %11 = load i32, ptr %n, align 4
  %add = add i32 %11, %conv
  store i32 %add, ptr %n, align 4
  br label %for.inc

for.inc:                                          ; preds = %lor.end
  %12 = load i64, ptr %i, align 8
  %inc = add i64 %12, 1
  store i64 %inc, ptr %i, align 8
  br label %for.cond, !llvm.loop !4

for.end:                                          ; preds = %for.cond
  %13 = load i32, ptr %n, align 4
  %mul = mul i32 6, %13
  %add4 = add i32 9, %mul
  %conv5 = zext i32 %add4 to i64
  call void @grpc_slice_malloc(ptr sret(%struct.grpc_slice) align 8 %ref.tmp, i64 noundef %conv5)
  call void @llvm.memcpy.p0.p0.i64(ptr align 8 %agg.result, ptr align 8 %ref.tmp, i64 32, i1 false)
  %refcount = getelementptr inbounds %struct.grpc_slice, ptr %agg.result, i32 0, i32 0
  %14 = load ptr, ptr %refcount, align 8
  %tobool = icmp ne ptr %14, null
  br i1 %tobool, label %cond.true, label %cond.false

cond.true:                                        ; preds = %for.end
  %data = getelementptr inbounds %struct.grpc_slice, ptr %agg.result, i32 0, i32 1
  %bytes = getelementptr inbounds %"struct.grpc_slice::grpc_slice_data::grpc_slice_refcounted", ptr %data, i32 0, i32 1
  %15 = load ptr, ptr %bytes, align 8
  br label %cond.end

cond.false:                                       ; preds = %for.end
  %data6 = getelementptr inbounds %struct.grpc_slice, ptr %agg.result, i32 0, i32 1
  %bytes7 = getelementptr inbounds %"struct.grpc_slice::grpc_slice_data::grpc_slice_inlined", ptr %data6, i32 0, i32 1
  %arraydecay = getelementptr inbounds [23 x i8], ptr %bytes7, i64 0, i64 0
  br label %cond.end

cond.end:                                         ; preds = %cond.false, %cond.true
  %cond = phi ptr [ %15, %cond.true ], [ %arraydecay, %cond.false ]
  %16 = load i32, ptr %n, align 4
  %mul8 = mul i32 6, %16
  %call = call noundef ptr @_ZL11fill_headerPhjh(ptr noundef %cond, i32 noundef %mul8, i8 noundef zeroext 0)
  store ptr %call, ptr %p, align 8
  store i64 0, ptr %i, align 8
  br label %for.cond9

for.cond9:                                        ; preds = %for.inc42, %cond.end
  %17 = load i64, ptr %i, align 8
  %18 = load i64, ptr %count.addr, align 8
  %cmp10 = icmp ult i64 %17, %18
  br i1 %cmp10, label %for.body11, label %for.end44

for.body11:                                       ; preds = %for.cond9
  %19 = load ptr, ptr %new_settings.addr, align 8
  %20 = load i64, ptr %i, align 8
  %arrayidx12 = getelementptr inbounds i32, ptr %19, i64 %20
  %21 = load i32, ptr %arrayidx12, align 4
  %22 = load ptr, ptr %old_settings.addr, align 8
  %23 = load i64, ptr %i, align 8
  %arrayidx13 = getelementptr inbounds i32, ptr %22, i64 %23
  %24 = load i32, ptr %arrayidx13, align 4
  %cmp14 = icmp ne i32 %21, %24
  br i1 %cmp14, label %if.then, label %lor.lhs.false

lor.lhs.false:                                    ; preds = %for.body11
  %25 = load i32, ptr %force_mask.addr, align 4
  %26 = load i64, ptr %i, align 8
  %sh_prom15 = trunc i64 %26 to i32
  %shl16 = shl i32 1, %sh_prom15
  %and17 = and i32 %25, %shl16
  %cmp18 = icmp ne i32 %and17, 0
  br i1 %cmp18, label %if.then, label %if.end

if.then:                                          ; preds = %lor.lhs.false, %for.body11
  %27 = load i64, ptr %i, align 8
  %arrayidx19 = getelementptr inbounds [0 x i16], ptr @grpc_setting_id_to_wire_id, i64 0, i64 %27
  %28 = load i16, ptr %arrayidx19, align 2
  %conv20 = zext i16 %28 to i32
  %shr = ashr i32 %conv20, 8
  %conv21 = trunc i32 %shr to i8
  %29 = load ptr, ptr %p, align 8
  %incdec.ptr = getelementptr inbounds i8, ptr %29, i32 1
  store ptr %incdec.ptr, ptr %p, align 8
  store i8 %conv21, ptr %29, align 1
  %30 = load i64, ptr %i, align 8
  %arrayidx22 = getelementptr inbounds [0 x i16], ptr @grpc_setting_id_to_wire_id, i64 0, i64 %30
  %31 = load i16, ptr %arrayidx22, align 2
  %conv23 = trunc i16 %31 to i8
  %32 = load ptr, ptr %p, align 8
  %incdec.ptr24 = getelementptr inbounds i8, ptr %32, i32 1
  store ptr %incdec.ptr24, ptr %p, align 8
  store i8 %conv23, ptr %32, align 1
  %33 = load ptr, ptr %new_settings.addr, align 8
  %34 = load i64, ptr %i, align 8
  %arrayidx25 = getelementptr inbounds i32, ptr %33, i64 %34
  %35 = load i32, ptr %arrayidx25, align 4
  %shr26 = lshr i32 %35, 24
  %conv27 = trunc i32 %shr26 to i8
  %36 = load ptr, ptr %p, align 8
  %incdec.ptr28 = getelementptr inbounds i8, ptr %36, i32 1
  store ptr %incdec.ptr28, ptr %p, align 8
  store i8 %conv27, ptr %36, align 1
  %37 = load ptr, ptr %new_settings.addr, align 8
  %38 = load i64, ptr %i, align 8
  %arrayidx29 = getelementptr inbounds i32, ptr %37, i64 %38
  %39 = load i32, ptr %arrayidx29, align 4
  %shr30 = lshr i32 %39, 16
  %conv31 = trunc i32 %shr30 to i8
  %40 = load ptr, ptr %p, align 8
  %incdec.ptr32 = getelementptr inbounds i8, ptr %40, i32 1
  store ptr %incdec.ptr32, ptr %p, align 8
  store i8 %conv31, ptr %40, align 1
  %41 = load ptr, ptr %new_settings.addr, align 8
  %42 = load i64, ptr %i, align 8
  %arrayidx33 = getelementptr inbounds i32, ptr %41, i64 %42
  %43 = load i32, ptr %arrayidx33, align 4
  %shr34 = lshr i32 %43, 8
  %conv35 = trunc i32 %shr34 to i8
  %44 = load ptr, ptr %p, align 8
  %incdec.ptr36 = getelementptr inbounds i8, ptr %44, i32 1
  store ptr %incdec.ptr36, ptr %p, align 8
  store i8 %conv35, ptr %44, align 1
  %45 = load ptr, ptr %new_settings.addr, align 8
  %46 = load i64, ptr %i, align 8
  %arrayidx37 = getelementptr inbounds i32, ptr %45, i64 %46
  %47 = load i32, ptr %arrayidx37, align 4
  %conv38 = trunc i32 %47 to i8
  %48 = load ptr, ptr %p, align 8
  %incdec.ptr39 = getelementptr inbounds i8, ptr %48, i32 1
  store ptr %incdec.ptr39, ptr %p, align 8
  store i8 %conv38, ptr %48, align 1
  %49 = load ptr, ptr %new_settings.addr, align 8
  %50 = load i64, ptr %i, align 8
  %arrayidx40 = getelementptr inbounds i32, ptr %49, i64 %50
  %51 = load i32, ptr %arrayidx40, align 4
  %52 = load ptr, ptr %old_settings.addr, align 8
  %53 = load i64, ptr %i, align 8
  %arrayidx41 = getelementptr inbounds i32, ptr %52, i64 %53
  store i32 %51, ptr %arrayidx41, align 4
  br label %if.end

if.end:                                           ; preds = %if.then, %lor.lhs.false
  br label %for.inc42

for.inc42:                                        ; preds = %if.end
  %54 = load i64, ptr %i, align 8
  %inc43 = add i64 %54, 1
  store i64 %inc43, ptr %i, align 8
  br label %for.cond9, !llvm.loop !6

for.end44:                                        ; preds = %for.cond9
  br label %do.body

do.body:                                          ; preds = %for.end44
  %55 = load ptr, ptr %p, align 8
  %refcount45 = getelementptr inbounds %struct.grpc_slice, ptr %agg.result, i32 0, i32 0
  %56 = load ptr, ptr %refcount45, align 8
  %tobool46 = icmp ne ptr %56, null
  br i1 %tobool46, label %cond.true47, label %cond.false50

cond.true47:                                      ; preds = %do.body
  %data48 = getelementptr inbounds %struct.grpc_slice, ptr %agg.result, i32 0, i32 1
  %bytes49 = getelementptr inbounds %"struct.grpc_slice::grpc_slice_data::grpc_slice_refcounted", ptr %data48, i32 0, i32 1
  %57 = load ptr, ptr %bytes49, align 8
  br label %cond.end54

cond.false50:                                     ; preds = %do.body
  %data51 = getelementptr inbounds %struct.grpc_slice, ptr %agg.result, i32 0, i32 1
  %bytes52 = getelementptr inbounds %"struct.grpc_slice::grpc_slice_data::grpc_slice_inlined", ptr %data51, i32 0, i32 1
  %arraydecay53 = getelementptr inbounds [23 x i8], ptr %bytes52, i64 0, i64 0
  br label %cond.end54

cond.end54:                                       ; preds = %cond.false50, %cond.true47
  %cond55 = phi ptr [ %57, %cond.true47 ], [ %arraydecay53, %cond.false50 ]
  %refcount56 = getelementptr inbounds %struct.grpc_slice, ptr %agg.result, i32 0, i32 0
  %58 = load ptr, ptr %refcount56, align 8
  %tobool57 = icmp ne ptr %58, null
  br i1 %tobool57, label %cond.true58, label %cond.false60

cond.true58:                                      ; preds = %cond.end54
  %data59 = getelementptr inbounds %struct.grpc_slice, ptr %agg.result, i32 0, i32 1
  %length = getelementptr inbounds %"struct.grpc_slice::grpc_slice_data::grpc_slice_refcounted", ptr %data59, i32 0, i32 0
  %59 = load i64, ptr %length, align 8
  br label %cond.end64

cond.false60:                                     ; preds = %cond.end54
  %data61 = getelementptr inbounds %struct.grpc_slice, ptr %agg.result, i32 0, i32 1
  %length62 = getelementptr inbounds %"struct.grpc_slice::grpc_slice_data::grpc_slice_inlined", ptr %data61, i32 0, i32 0
  %60 = load i8, ptr %length62, align 8
  %conv63 = zext i8 %60 to i64
  br label %cond.end64

cond.end64:                                       ; preds = %cond.false60, %cond.true58
  %cond65 = phi i64 [ %59, %cond.true58 ], [ %conv63, %cond.false60 ]
  %add.ptr = getelementptr inbounds i8, ptr %cond55, i64 %cond65
  %cmp66 = icmp eq ptr %55, %add.ptr
  %lnot = xor i1 %cmp66, true
  br i1 %lnot, label %if.then68, label %if.end69

if.then68:                                        ; preds = %cond.end64
  call void @gpr_assertion_failed(ptr noundef @.str, i32 noundef 85, ptr noundef @.str.1) #11
  unreachable

if.end69:                                         ; preds = %cond.end64
  br label %do.end

do.end:                                           ; preds = %if.end69
  ret void
}