; Function Attrs: mustprogress uwtable
define void @_Z27grpc_chttp2_settings_createPjPKjjm(ptr noalias sret(%struct.grpc_slice) align 8 %agg.result, ptr nocapture noundef %old_settings, ptr nocapture noundef readonly %new_settings, i32 noundef %force_mask, i64 noundef %count) local_unnamed_addr #3 {
entry:
  %ref.tmp = alloca %struct.grpc_slice, align 8
  %cmp36.not = icmp eq i64 %count, 0
  br i1 %cmp36.not, label %for.end, label %for.body

for.body:                                         ; preds = %entry, %for.body
  %n.038 = phi i32 [ %add, %for.body ], [ 0, %entry ]
  %i.037 = phi i64 [ %inc, %for.body ], [ 0, %entry ]
  %arrayidx = getelementptr inbounds i32, ptr %new_settings, i64 %i.037
  %0 = load i32, ptr %arrayidx, align 4
  %arrayidx1 = getelementptr inbounds i32, ptr %old_settings, i64 %i.037
  %1 = load i32, ptr %arrayidx1, align 4
  %cmp2.not = icmp ne i32 %0, %1
  %sh_prom = trunc i64 %i.037 to i32
  %shl = shl nuw i32 1, %sh_prom
  %and = and i32 %shl, %force_mask
  %cmp3 = icmp ne i32 %and, 0
  %2 = select i1 %cmp2.not, i1 true, i1 %cmp3
  %conv = zext i1 %2 to i32
  %add = add i32 %n.038, %conv
  %inc = add nuw i64 %i.037, 1
  %exitcond.not = icmp eq i64 %inc, %count
  br i1 %exitcond.not, label %for.end.loopexit, label %for.body, !llvm.loop !4

for.end.loopexit:                                 ; preds = %for.body
  %3 = mul i32 %add, 6
  br label %for.end

for.end:                                          ; preds = %for.end.loopexit, %entry
  %n.0.lcssa = phi i32 [ 0, %entry ], [ %3, %for.end.loopexit ]
  %add4 = add i32 %n.0.lcssa, 9
  %conv5 = zext i32 %add4 to i64
  call void @grpc_slice_malloc(ptr nonnull sret(%struct.grpc_slice) align 8 %ref.tmp, i64 noundef %conv5)
  call void @llvm.memcpy.p0.p0.i64(ptr noundef nonnull align 8 dereferenceable(32) %agg.result, ptr noundef nonnull align 8 dereferenceable(32) %ref.tmp, i64 32, i1 false)
  %4 = load ptr, ptr %agg.result, align 8
  %tobool.not = icmp eq ptr %4, null
  %data = getelementptr inbounds i8, ptr %agg.result, i64 8
  %bytes = getelementptr inbounds i8, ptr %agg.result, i64 16
  %5 = load ptr, ptr %bytes, align 8
  %bytes7 = getelementptr inbounds i8, ptr %agg.result, i64 9
  %cond = select i1 %tobool.not, ptr %bytes7, ptr %5
  %shr.i = lshr i32 %n.0.lcssa, 16
  %conv.i = trunc i32 %shr.i to i8
  %incdec.ptr.i = getelementptr inbounds i8, ptr %cond, i64 1
  store i8 %conv.i, ptr %cond, align 1
  %shr1.i = lshr i32 %n.0.lcssa, 8
  %conv2.i = trunc i32 %shr1.i to i8
  %incdec.ptr3.i = getelementptr inbounds i8, ptr %cond, i64 2
  store i8 %conv2.i, ptr %incdec.ptr.i, align 1
  %conv4.i = trunc i32 %n.0.lcssa to i8
  %incdec.ptr5.i = getelementptr inbounds i8, ptr %cond, i64 3
  store i8 %conv4.i, ptr %incdec.ptr3.i, align 1
  %incdec.ptr6.i = getelementptr inbounds i8, ptr %cond, i64 4
  store i8 4, ptr %incdec.ptr5.i, align 1
  %incdec.ptr7.i = getelementptr inbounds i8, ptr %cond, i64 5
  store i8 0, ptr %incdec.ptr6.i, align 1
  %incdec.ptr11.i = getelementptr inbounds i8, ptr %cond, i64 9
  store i32 0, ptr %incdec.ptr7.i, align 1
  br i1 %cmp36.not, label %do.body, label %for.body11

for.body11:                                       ; preds = %for.end, %for.inc42
  %p.041 = phi ptr [ %p.1, %for.inc42 ], [ %incdec.ptr11.i, %for.end ]
  %i.140 = phi i64 [ %inc43, %for.inc42 ], [ 0, %for.end ]
  %arrayidx12 = getelementptr inbounds i32, ptr %new_settings, i64 %i.140
  %6 = load i32, ptr %arrayidx12, align 4
  %arrayidx13 = getelementptr inbounds i32, ptr %old_settings, i64 %i.140
  %7 = load i32, ptr %arrayidx13, align 4
  %cmp14.not = icmp eq i32 %6, %7
  br i1 %cmp14.not, label %lor.lhs.false, label %if.then

lor.lhs.false:                                    ; preds = %for.body11
  %sh_prom15 = trunc i64 %i.140 to i32
  %shl16 = shl nuw i32 1, %sh_prom15
  %and17 = and i32 %shl16, %force_mask
  %cmp18.not = icmp eq i32 %and17, 0
  br i1 %cmp18.not, label %for.inc42, label %if.then

if.then:                                          ; preds = %lor.lhs.false, %for.body11
  %arrayidx19 = getelementptr inbounds [0 x i16], ptr @grpc_setting_id_to_wire_id, i64 0, i64 %i.140
  %8 = load i16, ptr %arrayidx19, align 2
  %9 = lshr i16 %8, 8
  %conv21 = trunc i16 %9 to i8
  %incdec.ptr = getelementptr inbounds i8, ptr %p.041, i64 1
  store i8 %conv21, ptr %p.041, align 1
  %conv23 = trunc i16 %8 to i8
  %incdec.ptr24 = getelementptr inbounds i8, ptr %p.041, i64 2
  store i8 %conv23, ptr %incdec.ptr, align 1
  %10 = load i32, ptr %arrayidx12, align 4
  %shr26 = lshr i32 %10, 24
  %conv27 = trunc i32 %shr26 to i8
  %incdec.ptr28 = getelementptr inbounds i8, ptr %p.041, i64 3
  store i8 %conv27, ptr %incdec.ptr24, align 1
  %11 = load i32, ptr %arrayidx12, align 4
  %shr30 = lshr i32 %11, 16
  %conv31 = trunc i32 %shr30 to i8
  %incdec.ptr32 = getelementptr inbounds i8, ptr %p.041, i64 4
  store i8 %conv31, ptr %incdec.ptr28, align 1
  %12 = load i32, ptr %arrayidx12, align 4
  %shr34 = lshr i32 %12, 8
  %conv35 = trunc i32 %shr34 to i8
  %incdec.ptr36 = getelementptr inbounds i8, ptr %p.041, i64 5
  store i8 %conv35, ptr %incdec.ptr32, align 1
  %13 = load i32, ptr %arrayidx12, align 4
  %conv38 = trunc i32 %13 to i8
  %incdec.ptr39 = getelementptr inbounds i8, ptr %p.041, i64 6
  store i8 %conv38, ptr %incdec.ptr36, align 1
  %14 = load i32, ptr %arrayidx12, align 4
  store i32 %14, ptr %arrayidx13, align 4
  br label %for.inc42

for.inc42:                                        ; preds = %lor.lhs.false, %if.then
  %p.1 = phi ptr [ %incdec.ptr39, %if.then ], [ %p.041, %lor.lhs.false ]
  %inc43 = add nuw i64 %i.140, 1
  %exitcond43.not = icmp eq i64 %inc43, %count
  br i1 %exitcond43.not, label %do.body, label %for.body11, !llvm.loop !6

do.body:                                          ; preds = %for.inc42, %for.end
  %p.0.lcssa = phi ptr [ %incdec.ptr11.i, %for.end ], [ %p.1, %for.inc42 ]
  %15 = load ptr, ptr %agg.result, align 8
  %tobool46.not = icmp eq ptr %15, null
  %16 = load ptr, ptr %bytes, align 8
  %cond55 = select i1 %tobool46.not, ptr %bytes7, ptr %16
  %17 = load i64, ptr %data, align 8
  %conv63 = and i64 %17, 255
  %cond65 = select i1 %tobool46.not, i64 %conv63, i64 %17
  %add.ptr = getelementptr inbounds i8, ptr %cond55, i64 %cond65
  %cmp66.not = icmp eq ptr %p.0.lcssa, %add.ptr
  br i1 %cmp66.not, label %do.end, label %if.then68

if.then68:                                        ; preds = %do.body
  call void @gpr_assertion_failed(ptr noundef nonnull @.str, i32 noundef 85, ptr noundef nonnull @.str.1) #14
  unreachable

do.end:                                           ; preds = %do.body
  ret void
}